Certificate:
    Data:
        Version: 1 (0x0)
        Serial Number:
            f3:49:92:0f:8b:55:bb:12
        Signature Algorithm: sha256WithRSAEncryption
        Issuer: O=MongoDB, OU=DevTools, CN=DevTools CA
        Validity
            Not Before: Dec 22 12:54:19 2020 GMT
            Not After : Oct  6 12:54:19 2294 GMT
        Subject: O=MongoDB, OU=DevTools, CN=localhost
        Subject Public Key Info:
            Public Key Algorithm: rsaEncryption
                RSA Public-Key: (4096 bit)
                Modulus:
                    00:b3:57:d2:f7:31:46:0b:76:ba:03:a6:65:53:cc:
                    6e:8f:8f:48:82:e1:70:d9:31:7e:23:18:62:3d:f3:
                    e3:7c:12:8a:9a:10:42:6a:40:d2:48:f2:2e:2f:a1:
                    f3:92:35:4b:eb:e4:c1:56:36:10:77:0e:13:eb:3d:
                    cc:95:e1:27:2d:7a:45:ef:0a:f1:19:d5:ac:6c:d0:
                    9b:61:d0:5f:00:0a:25:ce:20:ca:82:a7:1d:20:40:
                    d8:3b:3a:5d:dd:7b:f1:b2:46:92:16:7e:ee:97:e0:
                    8f:6c:de:05:79:29:0b:9d:92:df:a9:81:e4:53:78:
                    1f:26:44:8e:d2:a5:66:33:74:04:d7:16:f4:9f:9e:
                    e8:b4:d8:62:1b:2b:95:14:2d:46:35:f8:b8:b1:cb:
                    52:21:df:49:29:04:82:2f:8d:66:e1:19:eb:11:6a:
                    9b:cf:a4:21:f0:54:b3:16:39:a7:34:75:5c:f6:62:
                    50:39:71:06:5b:3e:e1:ff:dc:25:7c:fc:05:3a:84:
                    8b:71:05:1f:5f:15:78:37:e0:dc:1f:70:c3:87:ab:
                    70:22:18:98:81:8e:c3:2c:99:96:ac:0f:28:ea:fd:
                    c6:cd:b4:5f:83:47:77:69:0e:42:34:8d:0a:7c:a9:
                    71:c9:0a:0c:f4:cb:03:c2:64:dc:92:32:82:89:bb:
                    73:4f:e2:f3:de:e2:c9:1b:85:71:3c:88:72:48:38:
                    54:49:b6:6d:31:d7:71:a7:f3:75:bd:70:1b:4f:3b:
                    93:d4:34:05:7f:1a:2d:f1:be:d5:ee:87:b1:a0:5f:
                    2a:52:d8:6e:b9:8a:1c:b2:3d:80:a8:74:9b:06:ff:
                    c3:d8:9c:f4:50:0f:f3:aa:ba:c2:80:43:44:aa:b6:
                    d7:ae:7f:bf:5f:a4:74:89:87:07:80:ac:8d:a9:94:
                    1c:ed:49:0d:5c:0e:75:da:42:71:2f:e4:f9:47:93:
                    ff:5a:b7:bd:55:6b:cd:d3:de:b6:b2:4e:04:08:23:
                    31:70:56:fc:79:e2:71:46:d1:0c:9d:72:6a:f4:b1:
                    a4:9a:1f:99:17:8b:15:2a:ac:3d:18:1f:1e:06:24:
                    aa:a4:af:3a:e7:57:4a:a4:f4:67:f8:9b:68:00:3c:
                    82:fa:48:89:01:92:a6:e6:62:28:7f:cf:b6:e7:0d:
                    c6:91:e3:9e:dd:08:4a:66:1f:ed:41:7b:65:ee:05:
                    30:34:0a:45:96:58:92:06:6b:0c:61:f9:63:ba:c5:
                    18:b6:91:4e:bc:70:6c:a2:85:a9:e1:08:1c:ac:df:
                    9b:03:83:10:e5:4a:dc:72:e6:4a:fd:91:8f:de:4e:
                    d3:5e:8c:65:2e:96:de:06:e5:2a:a9:dc:53:7a:4f:
                    90:c7:d1
                Exponent: 65537 (0x10001)
    Signature Algorithm: sha256WithRSAEncryption
         0e:4a:aa:22:56:d9:61:20:fe:e6:3f:f0:aa:87:e5:3a:40:a3:
         bf:e3:b5:92:3b:b8:ed:ad:0d:17:d4:ad:fd:16:6d:2c:f6:74:
         94:9c:45:6c:1e:b1:59:68:a2:cf:69:18:c3:76:39:fe:d9:44:
         d7:12:6b:38:c6:c4:d3:b8:f0:b0:b6:81:80:46:b6:1a:67:da:
         22:8f:5e:cc:39:13:58:64:37:3a:a9:ac:ba:d6:67:c7:01:69:
         d5:2d:f4:12:62:be:1c:d7:e3:a3:19:f5:90:dd:e5:ce:d2:92:
         e7:73:2f:49:5e:d8:8f:7d:dc:57:ee:e3:f8:1d:1e:3d:27:85:
         82:25:dd:6f:03:4e:1f:f1:4f:6b:ad:31:df:0c:b3:3e:94:c9:
         5e:9b:a5:b7:ef:86:1f:a9:60:22:1b:bb:87:64:51:65:0d:c5:
         83:d7:8a:c3:ef:15:a0:21:fd:9f:97:83:c4:f3:5b:76:3f:6b:
         83:42:94:ac:72:fd:31:3e:e7:4d:fa:c7:a1:b3:27:b5:77:d5:
         98:60:25:fb:23:ef:c6:13:c1:c4:2c:4f:c0:d5:94:11:86:db:
         10:76:a5:ac:da:e2:a2:e3:ac:dd:3e:18:69:c1:2a:0d:64:71:
         97:7b:93:b8:02:99:f5:e4:fe:fa:9a:59:47:a7:9e:e5:48:08:
         da:36:1e:11:50:02:0b:e5:ad:13:f5:f7:60:c2:4e:27:82:c5:
         10:a1:3e:7d:6c:84:51:64:b9:6f:b7:59:e1:ed:77:90:75:a8:
         48:c8:ce:90:25:da:01:74:c1:48:80:3b:7e:8c:0f:ce:43:d8:
         d0:8e:1a:e6:e1:16:6e:08:e1:b0:e3:5d:c2:96:e3:1c:70:97:
         00:0c:4e:d9:e1:77:a0:88:a1:57:5c:65:35:73:77:bf:da:c3:
         a3:0e:ec:a2:e1:1f:d1:de:c1:3f:65:47:09:82:87:db:65:3d:
         f2:d8:a3:c1:eb:6e:6a:98:0f:69:34:46:29:11:fb:b1:0d:0e:
         25:80:c5:ae:2a:ad:d2:76:cf:bf:51:6c:c8:d4:30:73:ec:84:
         87:dd:37:b0:f4:28:b6:84:6d:26:15:50:f3:2e:2d:74:40:49:
         36:f0:19:d4:33:f3:d5:e3:e3:a5:04:28:51:6b:f3:ee:15:d2:
         7e:fb:87:5a:74:c6:71:57:f0:39:11:8e:1c:05:05:05:ca:40:
         d0:6e:e0:05:41:fd:78:78:fe:ce:64:b5:25:02:fc:1b:39:19:
         0b:97:3e:02:38:b5:86:75:1e:b5:7e:5a:8d:fe:42:ed:59:58:
         69:47:10:3d:c1:6e:b7:b1:f2:75:50:fa:d2:81:71:1d:42:32:
         ce:b3:a7:28:71:46:8c:d1
-----BEGIN CERTIFICATE-----
MIIE8jCCAtoCCQDzSZIPi1W7EjANBgkqhkiG9w0BAQsFADA7MRAwDgYDVQQKDAdN
b25nb0RCMREwDwYDVQQLDAhEZXZUb29sczEUMBIGA1UEAwwLRGV2VG9vbHMgQ0Ew
IBcNMjAxMjIyMTI1NDE5WhgPMjI5NDEwMDYxMjU0MTlaMDkxEDAOBgNVBAoMB01v
bmdvREIxETAPBgNVBAsMCERldlRvb2xzMRIwEAYDVQQDDAlsb2NhbGhvc3QwggIi
MA0GCSqGSIb3DQEBAQUAA4ICDwAwggIKAoICAQCzV9L3MUYLdroDpmVTzG6Pj0iC
4XDZMX4jGGI98+N8EoqaEEJqQNJI8i4vofOSNUvr5MFWNhB3DhPrPcyV4SctekXv
CvEZ1axs0Jth0F8ACiXOIMqCpx0gQNg7Ol3de/GyRpIWfu6X4I9s3gV5KQudkt+p
geRTeB8mRI7SpWYzdATXFvSfnui02GIbK5UULUY1+Lixy1Ih30kpBIIvjWbhGesR
apvPpCHwVLMWOac0dVz2YlA5cQZbPuH/3CV8/AU6hItxBR9fFXg34NwfcMOHq3Ai
GJiBjsMsmZasDyjq/cbNtF+DR3dpDkI0jQp8qXHJCgz0ywPCZNySMoKJu3NP4vPe
4skbhXE8iHJIOFRJtm0x13Gn83W9cBtPO5PUNAV/Gi3xvtXuh7GgXypS2G65ihyy
PYCodJsG/8PYnPRQD/OqusKAQ0Sqtteuf79fpHSJhweArI2plBztSQ1cDnXaQnEv
5PlHk/9at71Va83T3rayTgQIIzFwVvx54nFG0Qydcmr0saSaH5kXixUqrD0YHx4G
JKqkrzrnV0qk9Gf4m2gAPIL6SIkBkqbmYih/z7bnDcaR457dCEpmH+1Be2XuBTA0
CkWWWJIGawxh+WO6xRi2kU68cGyihanhCBys35sDgxDlStxy5kr9kY/eTtNejGUu
lt4G5Sqp3FN6T5DH0QIDAQABMA0GCSqGSIb3DQEBCwUAA4ICAQAOSqoiVtlhIP7m
P/Cqh+U6QKO/47WSO7jtrQ0X1K39Fm0s9nSUnEVsHrFZaKLPaRjDdjn+2UTXEms4
xsTTuPCwtoGARrYaZ9oij17MORNYZDc6qay61mfHAWnVLfQSYr4c1+OjGfWQ3eXO
0pLncy9JXtiPfdxX7uP4HR49J4WCJd1vA04f8U9rrTHfDLM+lMlem6W374YfqWAi
G7uHZFFlDcWD14rD7xWgIf2fl4PE81t2P2uDQpSscv0xPudN+sehsye1d9WYYCX7
I+/GE8HELE/A1ZQRhtsQdqWs2uKi46zdPhhpwSoNZHGXe5O4Apn15P76mllHp57l
SAjaNh4RUAIL5a0T9fdgwk4ngsUQoT59bIRRZLlvt1nh7XeQdahIyM6QJdoBdMFI
gDt+jA/OQ9jQjhrm4RZuCOGw413CluMccJcADE7Z4XegiKFXXGU1c3e/2sOjDuyi
4R/R3sE/ZUcJgofbZT3y2KPB625qmA9pNEYpEfuxDQ4lgMWuKq3Sds+/UWzI1DBz
7ISH3Tew9Ci2hG0mFVDzLi10QEk28BnUM/PV4+OlBChRa/PuFdJ++4dadMZxV/A5
EY4cBQUFykDQbuAFQf14eP7OZLUlAvwbORkLlz4COLWGdR61flqN/kLtWVhpRxA9
wW63sfJ1UPrSgXEdQjLOs6cocUaM0Q==
-----END CERTIFICATE-----
-----BEGIN RSA PRIVATE KEY-----
MIIJJwIBAAKCAgEAs1fS9zFGC3a6A6ZlU8xuj49IguFw2TF+IxhiPfPjfBKKmhBC
akDSSPIuL6HzkjVL6+TBVjYQdw4T6z3MleEnLXpF7wrxGdWsbNCbYdBfAAolziDK
gqcdIEDYOzpd3XvxskaSFn7ul+CPbN4FeSkLnZLfqYHkU3gfJkSO0qVmM3QE1xb0
n57otNhiGyuVFC1GNfi4sctSId9JKQSCL41m4RnrEWqbz6Qh8FSzFjmnNHVc9mJQ
OXEGWz7h/9wlfPwFOoSLcQUfXxV4N+DcH3DDh6twIhiYgY7DLJmWrA8o6v3GzbRf
g0d3aQ5CNI0KfKlxyQoM9MsDwmTckjKCibtzT+Lz3uLJG4VxPIhySDhUSbZtMddx
p/N1vXAbTzuT1DQFfxot8b7V7oexoF8qUthuuYocsj2AqHSbBv/D2Jz0UA/zqrrC
gENEqrbXrn+/X6R0iYcHgKyNqZQc7UkNXA512kJxL+T5R5P/Wre9VWvN0962sk4E
CCMxcFb8eeJxRtEMnXJq9LGkmh+ZF4sVKqw9GB8eBiSqpK8651dKpPRn+JtoADyC
+kiJAZKm5mIof8+25w3GkeOe3QhKZh/tQXtl7gUwNApFlliSBmsMYfljusUYtpFO
vHBsooWp4QgcrN+bA4MQ5UrccuZK/ZGP3k7TXoxlLpbeBuUqqdxTek+Qx9ECAwEA
AQKCAgAnYC/0j//2AmJC7OSwamEX6ficq8ywExrDr9XaDlMy6Ys+2jUKySKiW3Hi
iWdGAaeiqj38pLAmw5OCAbaKbb3BUWhLXJak+nH6Di8fYbWJ97BnOnHcD77oVvRi
xKTZPR5K6w2mHMZb2DUFTRXcjTN8rEOpHti3rtb/+ut0ulXfFCj/5I1fAm/LTPr1
RjNcE7innu1GNALbZv/UHqZKtHwTDjK7RzHgfAPrlV0gkxXwAZigi+NbSUKBBCRw
nbApadfoCjPnY52IrdkQQ7FwwbxcbDqZcdcCEwstHqejLUzpk0Bz55dU5nsEONo2
WYUk67sMzcUcdfpkUurOuoJIpTxivrShR7b96YXFo3oDSKL0YxxPrBQhzDieEa4d
BM1j9VyOXJxOANo/T9dM2nDx9/sEPKapZ/91OHk2qackDxtY3U4IHSo0Gcgz96jX
DAjLjRawhJPww/OyNslDs5Cqeeh0j5wohYtoNFqXASV+cfFlD8DAAYRuW5Q6cSIu
7OD1GAiNokSlDqyQtvLa4wj9hLVwjHdwF2Iz0rTcr0nTwbZ3n7sQuIrsusSgnu6g
J5Zw84CHBPpY3NNBoOEEMf/L41ge1YESmB3Z5y+2AAE0xayBwmlI42rj8E19nCKD
6VAJG3IhrXkAKkI1za+cKkJud4b+PieTm65FTCcDmAu+xVfCRQKCAQEA2C27QxkH
9i1SYypqk4yrf1eZKqyFwwqZZya+2BLrXoha5rjq8GD+2AFII7+fNDNx/FbxSIqm
bdvYX+TUFx8Ymz3HB9VzT9MutpEcOU7SBkLm6Bxh8oIeHFQJhYwfZb1KyFai6/oQ
sT7Fw3xkMLldn9WzsqpNuntnE8+Q11J+qa40My5qcrTg2DbQ11ripJE1QTVybzRJ
3MJPIb8t3r5G8S9mgQ/6ijnm8n+v9aZlE/Y8Yb60eojKv5Ycrln9RI12sSeQsUjC
q9h2xhYsaDfHnWH90DPn97D0lQi2b1YJPhfzc6UAV7YKTVIWvva9U+4aIidAQAMy
DXJ1jOkXR4CwKwKCAQEA1GEMgbRaXDEfw674lgbG5yKkLdB4BrVKPtwkTsBks60T
hwwC0YMvKhCVZ0avSLH6yjq2kqFn9E6mOG+GN6sNNSTPqY/j6BG3yFNDCN3VzLI8
/eFvd0QQpUA+SglgMi2jGYT1YK+xAoySQSgqi/rp1WEh3VS2lW2bbgqgFHZ52qif
9WpGnXyJFzZn1OAK53hE0+j1Xmv2AAXHp/O0OVSgopOKvbcLz7hsB2jur23CYepc
QaZMw3tnKgnKd2Sns3lVH0QmAQl1WB2wB5x5OtNAjI3wRMhcUrSQgH0DdXYE3rXE
FJGi4sZ59rm1mKQcaI2qqMyxc9/rjgEeLTt5aVYt8wKCAQAvvYGyYq/AbOfZ4H8i
0Jj7CVRY+TqdBRU1k3fn7d2uxbwVYdb4eOMuvrG4u1OkSowspuKoG35/mmJhYv53
kLV1ayIuF7Rcd43EYa1y9nYpTdMChWoYDSYrKV/k7znr1O7T6VYXeOUAz5ULA8h4
ficv6hjCJxv9R81OsbMR6jTwsfjzKJf3dvyEoy5hsL+Gik7RdMUty8VYDE0/baHq
o+i00Lv5WpcAuaLIAOzR+goua12QVHY07UqhHrx8wIDPB9KjctJgZGohWy93tWPf
LBpYJlDQDvZ2W8zXsNHhKoXmAZIRAupddGU4CB3f1EuhYl7BFhv5Rvthvto44Szz
7HZ7AoIBAGXk5g44zH2c6AOHqCa6u6VbXm/IrD1zr1p3XkgWUHpQGKVbYuLIUNGa
wUOaizCSi6OJBd1V6T0ymtdK0pdUzvJnZeaRbaQDFCzdnbTcUd5yyYZ5KXSMSHww
VXJKC0gn0y/ENcIcqQ1zChyOu9MLIDNK9edt5GfO/ZqPKHyI1y/MZWpmgdi/Tjq/
1JMypqilcEhHZanWnGEoZME00IwNCUDXDuK0tssDTXlEo/ew7mjx+y9YLU5An59w
sR4VQcx+8xMcLCulMRKEs9cDALrzbe3Bj7xAcOMRVJ8A2674X5/Gj3va385zsUJp
mTHR0vtqtK1l/+F7VlV8PdEvzrF2MncCggEAEYMiXzTs+TRtTRLBH+vsaa6hu5KE
jMST+4q7opl/joscp+LYlS4y2oUp+LBQX2RnujR1Rfp/TFd/mCwOx5v4n4bzFqUu
jQaxbx8afiP1lIhxT1+TmoXT1X+y3FssALULzZzHY5zwx/r3zLOk6FgbnmRshF4S
VWbFOIooO53ZIW0QhyhLrRft8aGzGv7j2Sz5oesclC/8N/HRyDCaN7Wr3ES0xbSE
cg7cMGwxUownhLq5xubwyve6mO0Hg1fEqt/VhkHzuFjSUCMz0GZcEfWC9iEBU97Z
cIe6NXM3rtfuevnfJtRZrsAJeJtPLDJtsxh2VkrmH/A/nYpJmKMY+nh2TA==
-----END RSA PRIVATE KEY-----
